target datalayout = "e-m:e-p270:32:32-p271:32:32-p272:64:64-i64:64-i128:128-f80:128-n8:16:32:64-S128"
target triple = "x86_64-pc-linux-gnu"

%struct.AVChannelLayout = type { i32, i32, %union.anon.1, ptr }
%union.anon.1 = type { i64 }

@query_formats.formats = internal constant [2 x i32] [i32 4, i32 -1], align 4
@query_formats.layouts = internal constant [2 x %struct.AVChannelLayout] [%struct.AVChannelLayout { i32 1, i32 2, %union.anon.1 { i64 3 }, ptr null }, %struct.AVChannelLayout zeroinitializer], align 16

; Function Attrs: nounwind uwtable
define internal i32 @query_formats(ptr noundef %0, ptr noundef %1, ptr noundef %2) #1 {
  %4 = alloca i32, align 4
  %5 = alloca ptr, align 8
  %6 = alloca ptr, align 8
  %7 = alloca ptr, align 8
  %8 = alloca i32, align 4
  %9 = alloca i32, align 4
  store ptr %0, ptr %5, align 8, !tbaa !4
  store ptr %1, ptr %6, align 8, !tbaa !24
  store ptr %2, ptr %7, align 8, !tbaa !24
  call void @llvm.lifetime.start.p0(i64 4, ptr %8) #5
  %10 = load ptr, ptr %5, align 8, !tbaa !4
  %11 = load ptr, ptr %6, align 8, !tbaa !24
  %12 = load ptr, ptr %7, align 8, !tbaa !24
  %13 = call i32 @ff_set_common_formats_from_list2(ptr noundef %10, ptr noundef %11, ptr noundef %12, ptr noundef @query_formats.formats)
  store i32 %13, ptr %8, align 4, !tbaa !26
  %14 = load i32, ptr %8, align 4, !tbaa !26
  %15 = icmp slt i32 %14, 0
  br i1 %15, label %16, label %18

16:                                               ; preds = %3
  %17 = load i32, ptr %8, align 4, !tbaa !26
  store i32 %17, ptr %4, align 4
  store i32 1, ptr %9, align 4
  br label %28

18:                                               ; preds = %3
  %19 = load ptr, ptr %5, align 8, !tbaa !4
  %20 = load ptr, ptr %6, align 8, !tbaa !24
  %21 = load ptr, ptr %7, align 8, !tbaa !24
  %22 = call i32 @ff_set_common_channel_layouts_from_list2(ptr noundef %19, ptr noundef %20, ptr noundef %21, ptr noundef @query_formats.layouts)
  store i32 %22, ptr %8, align 4, !tbaa !26
  %23 = load i32, ptr %8, align 4, !tbaa !26
  %24 = icmp slt i32 %23, 0
  br i1 %24, label %25, label %27

25:                                               ; preds = %18
  %26 = load i32, ptr %8, align 4, !tbaa !26
  store i32 %26, ptr %4, align 4
  store i32 1, ptr %9, align 4
  br label %28

27:                                               ; preds = %18
  store i32 0, ptr %4, align 4
  store i32 1, ptr %9, align 4
  br label %28

28:                                               ; preds = %27, %25, %16
  call void @llvm.lifetime.end.p0(i64 4, ptr %8) #5
  %29 = load i32, ptr %4, align 4
  ret i32 %29
}